; Function Attrs: mustprogress uwtable
define hidden noundef ptr @_Z16cvImageWidgetNewi(i32 noundef %0) local_unnamed_addr #3 personality ptr @__gxx_personality_v0 {
  %2 = alloca %"class.std::__cxx11::basic_string", align 8
  %3 = alloca %"class.std::allocator", align 1
  %4 = load i64, ptr @_ZZ22cvImageWidget_get_typevE10image_type, align 8, !tbaa !3
  %.not.i = icmp eq i64 %4, 0
  br i1 %.not.i, label %5, label %_Z22cvImageWidget_get_typev.exit

5:                                                ; preds = %1
  %6 = tail call i64 @gtk_widget_get_type() #30
  %7 = tail call i64 @g_type_register_static_simple(i64 noundef %6, ptr noundef nonnull @.str.2, i32 noundef 824, ptr noundef nonnull @_ZL24cvImageWidget_class_initPvS_, i32 noundef 56, ptr noundef nonnull @_ZL18cvImageWidget_initP14_GTypeInstancePv, i32 noundef 0)
  store i64 %7, ptr @_ZZ22cvImageWidget_get_typevE10image_type, align 8, !tbaa !3
  br label %_Z22cvImageWidget_get_typev.exit

_Z22cvImageWidget_get_typev.exit:                 ; preds = %1, %5
  %8 = phi i64 [ %7, %5 ], [ %4, %1 ]
  %9 = tail call ptr (i64, ptr, ...) @gtk_widget_new(i64 noundef %8, ptr noundef null)
  %10 = load i64, ptr @_ZZ22cvImageWidget_get_typevE10image_type, align 8, !tbaa !3
  %.not.i10 = icmp eq i64 %10, 0
  br i1 %.not.i10, label %11, label %_Z22cvImageWidget_get_typev.exit11

11:                                               ; preds = %_Z22cvImageWidget_get_typev.exit
  %12 = tail call i64 @gtk_widget_get_type() #30
  %13 = tail call i64 @g_type_register_static_simple(i64 noundef %12, ptr noundef nonnull @.str.2, i32 noundef 824, ptr noundef nonnull @_ZL24cvImageWidget_class_initPvS_, i32 noundef 56, ptr noundef nonnull @_ZL18cvImageWidget_initP14_GTypeInstancePv, i32 noundef 0)
  store i64 %13, ptr @_ZZ22cvImageWidget_get_typevE10image_type, align 8, !tbaa !3
  br label %_Z22cvImageWidget_get_typev.exit11

_Z22cvImageWidget_get_typev.exit11:               ; preds = %_Z22cvImageWidget_get_typev.exit, %11
  %14 = phi i64 [ %13, %11 ], [ %10, %_Z22cvImageWidget_get_typev.exit ]
  %15 = tail call ptr @g_type_check_instance_cast(ptr noundef %9, i64 noundef %14)
  %.not = icmp eq ptr %15, null
  br i1 %.not, label %16, label %26

16:                                               ; preds = %_Z22cvImageWidget_get_typev.exit11
  call void @llvm.lifetime.start.p0(i64 32, ptr nonnull %2) #31
  call void @llvm.lifetime.start.p0(i64 1, ptr nonnull %3) #31
  call void @_ZNSt7__cxx1112basic_stringIcSt11char_traitsIcESaIcEEC2EPKcRKS3_(ptr noundef nonnull align 8 dereferenceable(32) %2, ptr noundef nonnull @.str, ptr noundef nonnull align 1 dereferenceable(1) %3)
  invoke void @_ZN2cv5errorEiRKNSt7__cxx1112basic_stringIcSt11char_traitsIcESaIcEEEPKcS9_i(i32 noundef -215, ptr noundef nonnull align 8 dereferenceable(32) %2, ptr noundef nonnull @__func__._Z16cvImageWidgetNewi, ptr noundef nonnull @.str.1, i32 noundef 170) #32
          to label %17 unwind label %18

17:                                               ; preds = %16
  unreachable

18:                                               ; preds = %16
  %19 = landingpad { ptr, i32 }
          cleanup
  %20 = load ptr, ptr %2, align 8, !tbaa !7
  %21 = getelementptr inbounds nuw i8, ptr %2, i64 16
  %22 = icmp eq ptr %20, %21
  br i1 %22, label %_ZNKSt7__cxx1112basic_stringIcSt11char_traitsIcESaIcEE11_M_is_localEv.exit.thread.i.i, label %_ZNKSt7__cxx1112basic_stringIcSt11char_traitsIcESaIcEE11_M_is_localEv.exit.i.i

_ZNKSt7__cxx1112basic_stringIcSt11char_traitsIcESaIcEE11_M_is_localEv.exit.thread.i.i: ; preds = %18
  %23 = getelementptr inbounds nuw i8, ptr %2, i64 8
  %24 = load i64, ptr %23, align 8, !tbaa !12
  %25 = icmp ult i64 %24, 16
  call void @llvm.assume(i1 %25)
  br label %_ZNSt7__cxx1112basic_stringIcSt11char_traitsIcESaIcEED2Ev.exit

_ZNKSt7__cxx1112basic_stringIcSt11char_traitsIcESaIcEE11_M_is_localEv.exit.i.i: ; preds = %18
  call void @_ZdlPv(ptr noundef %20) #33
  br label %_ZNSt7__cxx1112basic_stringIcSt11char_traitsIcESaIcEED2Ev.exit

_ZNSt7__cxx1112basic_stringIcSt11char_traitsIcESaIcEED2Ev.exit: ; preds = %_ZNKSt7__cxx1112basic_stringIcSt11char_traitsIcESaIcEE11_M_is_localEv.exit.i.i, %_ZNKSt7__cxx1112basic_stringIcSt11char_traitsIcESaIcEE11_M_is_localEv.exit.thread.i.i
  call void @llvm.lifetime.end.p0(i64 1, ptr nonnull %3) #31
  call void @llvm.lifetime.end.p0(i64 32, ptr nonnull %2) #31
  resume { ptr, i32 } %19

26:                                               ; preds = %_Z22cvImageWidget_get_typev.exit11
  %27 = getelementptr inbounds nuw i8, ptr %15, i64 32
  %28 = or i32 %0, 2
  %29 = getelementptr inbounds nuw i8, ptr %15, i64 48
  tail call void @llvm.memset.p0.i64(ptr noundef nonnull align 8 dereferenceable(16) %27, i8 0, i64 16, i1 false)
  store i32 %28, ptr %29, align 8, !tbaa !13
  %30 = tail call i64 @gtk_widget_get_type() #30
  %31 = tail call ptr @g_type_check_instance_cast(ptr noundef nonnull %15, i64 noundef %30)
  ret ptr %31
}